target datalayout = "e-m:e-p270:32:32-p271:32:32-p272:64:64-i64:64-i128:128-f80:128-n8:16:32:64-S128"
target triple = "x86_64-pc-linux-gnu"

%struct.pmix_pointer_array_t = type { %struct.pmix_object_t, i32, i32, i32, i32, i32, ptr, ptr }
%struct.pmix_object_t = type { %union.pthread_mutex_t, ptr, i32, %struct.pmix_tma }
%union.pthread_mutex_t = type { %struct.__pthread_mutex_s }
%struct.__pthread_mutex_s = type { i32, i32, i32, i32, i32, i16, i16, %struct.__pthread_internal_list }
%struct.__pthread_internal_list = type { ptr, ptr }
%struct.pmix_tma = type { ptr, ptr, ptr, ptr, ptr, ptr, ptr, ptr }
%struct.pmix_mca_base_var_group_t = type { %struct.pmix_list_item_t, i32, i8, ptr, ptr, ptr, ptr, ptr, %struct.pmix_value_array_t, %struct.pmix_value_array_t }
%struct.pmix_list_item_t = type { %struct.pmix_object_t, ptr, ptr, i32 }
%struct.pmix_value_array_t = type { %struct.pmix_object_t, ptr, i64, i64, i64 }

@pmix_mca_base_var_groups = internal global %struct.pmix_pointer_array_t zeroinitializer, align 8
@pmix_mca_base_var_groups_timestamp = internal global i32 0, align 4

; Function Attrs: inlinehint nounwind uwtable
define internal i32 @pmix_value_array_set_item(ptr noundef %0, i64 noundef %1, ptr noundef %2) #3 {
  %4 = alloca i32, align 4
  %5 = alloca ptr, align 8
  %6 = alloca i64, align 8
  %7 = alloca ptr, align 8
  %8 = alloca i32, align 4
  %9 = alloca i32, align 4
  store ptr %0, ptr %5, align 8, !tbaa !71
  store i64 %1, ptr %6, align 8, !tbaa !78
  store ptr %2, ptr %7, align 8, !tbaa !45
  call void @llvm.lifetime.start.p0(i64 4, ptr %8) #14
  %10 = load i64, ptr %6, align 8, !tbaa !78
  %11 = load ptr, ptr %5, align 8, !tbaa !71
  %12 = getelementptr inbounds nuw %struct.pmix_value_array_t, ptr %11, i32 0, i32 3
  %13 = load i64, ptr %12, align 8, !tbaa !73
  %14 = icmp uge i64 %10, %13
  br i1 %14, label %15, label %23

15:                                               ; preds = %3
  %16 = load ptr, ptr %5, align 8, !tbaa !71
  %17 = load i64, ptr %6, align 8, !tbaa !78
  %18 = add i64 %17, 1
  %19 = call i32 @pmix_value_array_set_size(ptr noundef %16, i64 noundef %18)
  store i32 %19, ptr %8, align 4, !tbaa !8
  %20 = icmp ne i32 %19, 0
  br i1 %20, label %21, label %23

21:                                               ; preds = %15
  %22 = load i32, ptr %8, align 4, !tbaa !8
  store i32 %22, ptr %4, align 4
  store i32 1, ptr %9, align 4
  br label %37

23:                                               ; preds = %15, %3
  %24 = load ptr, ptr %5, align 8, !tbaa !71
  %25 = getelementptr inbounds nuw %struct.pmix_value_array_t, ptr %24, i32 0, i32 1
  %26 = load ptr, ptr %25, align 8, !tbaa !81
  %27 = load i64, ptr %6, align 8, !tbaa !78
  %28 = load ptr, ptr %5, align 8, !tbaa !71
  %29 = getelementptr inbounds nuw %struct.pmix_value_array_t, ptr %28, i32 0, i32 2
  %30 = load i64, ptr %29, align 8, !tbaa !82
  %31 = mul i64 %27, %30
  %32 = getelementptr inbounds nuw i8, ptr %26, i64 %31
  %33 = load ptr, ptr %7, align 8, !tbaa !45
  %34 = load ptr, ptr %5, align 8, !tbaa !71
  %35 = getelementptr inbounds nuw %struct.pmix_value_array_t, ptr %34, i32 0, i32 2
  %36 = load i64, ptr %35, align 8, !tbaa !82
  call void @llvm.memcpy.p0.p0.i64(ptr align 1 %32, ptr align 1 %33, i64 %36, i1 false)
  store i32 0, ptr %4, align 4
  store i32 1, ptr %9, align 4
  br label %37

37:                                               ; preds = %23, %21
  call void @llvm.lifetime.end.p0(i64 4, ptr %8) #14
  %38 = load i32, ptr %4, align 4
  ret i32 %38
}

; Function Attrs: inlinehint nounwind uwtable
define internal ptr @pmix_pointer_array_get_item(ptr noundef %0, i32 noundef %1) #3 {
  %3 = alloca ptr, align 8
  %4 = alloca ptr, align 8
  %5 = alloca i32, align 4
  %6 = alloca ptr, align 8
  %7 = alloca i32, align 4
  store ptr %0, ptr %4, align 8, !tbaa !50
  store i32 %1, ptr %5, align 4, !tbaa !8
  call void @llvm.lifetime.start.p0(i64 8, ptr %6) #14
  %8 = load i32, ptr %5, align 4, !tbaa !8
  %9 = icmp sgt i32 0, %8
  br i1 %9, label %16, label %10

10:                                               ; preds = %2
  %11 = load ptr, ptr %4, align 8, !tbaa !50
  %12 = getelementptr inbounds nuw %struct.pmix_pointer_array_t, ptr %11, i32 0, i32 3
  %13 = load i32, ptr %12, align 8, !tbaa !52
  %14 = load i32, ptr %5, align 4, !tbaa !8
  %15 = icmp sle i32 %13, %14
  br label %16

16:                                               ; preds = %10, %2
  %17 = phi i1 [ true, %2 ], [ %15, %10 ]
  %18 = xor i1 %17, true
  %19 = xor i1 %18, true
  %20 = zext i1 %19 to i32
  %21 = sext i32 %20 to i64
  %22 = call i64 @llvm.expect.i64(i64 %21, i64 0)
  %23 = icmp ne i64 %22, 0
  br i1 %23, label %24, label %25

24:                                               ; preds = %16
  store ptr null, ptr %3, align 8
  store i32 1, ptr %7, align 4
  br label %34

25:                                               ; preds = %16
  %26 = load ptr, ptr %4, align 8, !tbaa !50
  %27 = getelementptr inbounds nuw %struct.pmix_pointer_array_t, ptr %26, i32 0, i32 7
  %28 = load ptr, ptr %27, align 8, !tbaa !55
  %29 = load i32, ptr %5, align 4, !tbaa !8
  %30 = sext i32 %29 to i64
  %31 = getelementptr inbounds ptr, ptr %28, i64 %30
  %32 = load ptr, ptr %31, align 8, !tbaa !45
  store ptr %32, ptr %6, align 8, !tbaa !45
  %33 = load ptr, ptr %6, align 8, !tbaa !45
  store ptr %33, ptr %3, align 8
  store i32 1, ptr %7, align 4
  br label %34

34:                                               ; preds = %25, %24
  call void @llvm.lifetime.end.p0(i64 8, ptr %6) #14
  %35 = load ptr, ptr %3, align 8
  ret ptr %35
}

; Function Attrs: inlinehint nounwind uwtable
define internal i32 @pmix_value_array_append_item(ptr noundef %0, ptr noundef %1) #3 {
  %3 = alloca ptr, align 8
  %4 = alloca ptr, align 8
  store ptr %0, ptr %3, align 8, !tbaa !71
  store ptr %1, ptr %4, align 8, !tbaa !45
  %5 = load ptr, ptr %3, align 8, !tbaa !71
  %6 = load ptr, ptr %3, align 8, !tbaa !71
  %7 = getelementptr inbounds nuw %struct.pmix_value_array_t, ptr %6, i32 0, i32 3
  %8 = load i64, ptr %7, align 8, !tbaa !73
  %9 = load ptr, ptr %4, align 8, !tbaa !45
  %10 = call i32 @pmix_value_array_set_item(ptr noundef %5, i64 noundef %8, ptr noundef %9)
  ret i32 %10
}

; Function Attrs: inlinehint nounwind uwtable
define internal i64 @pmix_value_array_get_size(ptr noundef %0) #3 {
  %2 = alloca ptr, align 8
  store ptr %0, ptr %2, align 8, !tbaa !71
  %3 = load ptr, ptr %2, align 8, !tbaa !71
  %4 = getelementptr inbounds nuw %struct.pmix_value_array_t, ptr %3, i32 0, i32 3
  %5 = load i64, ptr %4, align 8, !tbaa !73
  ret i64 %5
}

; Function Attrs: nounwind uwtable
define i32 @pmix_mca_base_var_group_get_internal(i32 noundef %0, ptr noundef %1, i1 noundef zeroext %2) #0 {
  %4 = alloca i32, align 4
  %5 = alloca i32, align 4
  %6 = alloca ptr, align 8
  %7 = alloca i8, align 1
  store i32 %0, ptr %5, align 4, !tbaa !8
  store ptr %1, ptr %6, align 8, !tbaa !59
  %8 = zext i1 %2 to i8
  store i8 %8, ptr %7, align 1, !tbaa !29
  %9 = load i32, ptr %5, align 4, !tbaa !8
  %10 = icmp slt i32 %9, 0
  br i1 %10, label %11, label %12

11:                                               ; preds = %3
  store i32 -46, ptr %4, align 4
  br label %31

12:                                               ; preds = %3
  %13 = load i32, ptr %5, align 4, !tbaa !8
  %14 = call ptr @pmix_pointer_array_get_item(ptr noundef @pmix_mca_base_var_groups, i32 noundef %13)
  %15 = load ptr, ptr %6, align 8, !tbaa !59
  store ptr %14, ptr %15, align 8, !tbaa !3
  %16 = load ptr, ptr %6, align 8, !tbaa !59
  %17 = load ptr, ptr %16, align 8, !tbaa !3
  %18 = icmp eq ptr null, %17
  br i1 %18, label %28, label %19

19:                                               ; preds = %12
  %20 = load i8, ptr %7, align 1, !tbaa !29, !range !30, !noundef !31
  %21 = trunc i8 %20 to i1
  br i1 %21, label %30, label %22

22:                                               ; preds = %19
  %23 = load ptr, ptr %6, align 8, !tbaa !59
  %24 = load ptr, ptr %23, align 8, !tbaa !3
  %25 = getelementptr inbounds nuw %struct.pmix_mca_base_var_group_t, ptr %24, i32 0, i32 2
  %26 = load i8, ptr %25, align 4, !tbaa !61, !range !30, !noundef !31
  %27 = trunc i8 %26 to i1
  br i1 %27, label %30, label %28

28:                                               ; preds = %22, %12
  %29 = load ptr, ptr %6, align 8, !tbaa !59
  store ptr null, ptr %29, align 8, !tbaa !3
  store i32 -46, ptr %4, align 4
  br label %31

30:                                               ; preds = %22, %19
  store i32 0, ptr %4, align 4
  br label %31

31:                                               ; preds = %30, %28, %11
  %32 = load i32, ptr %4, align 4
  ret i32 %32
}

; Function Attrs: nounwind uwtable
define i32 @pmix_mca_base_var_group_add_var(i32 noundef %0, i32 noundef %1) #0 {
  %3 = alloca i32, align 4
  %4 = alloca i32, align 4
  %5 = alloca i32, align 4
  %6 = alloca ptr, align 8
  %7 = alloca i32, align 4
  %8 = alloca i32, align 4
  %9 = alloca i32, align 4
  %10 = alloca ptr, align 8
  %11 = alloca i32, align 4
  store i32 %0, ptr %4, align 4, !tbaa !8
  store i32 %1, ptr %5, align 4, !tbaa !8
  call void @llvm.lifetime.start.p0(i64 8, ptr %6) #14
  call void @llvm.lifetime.start.p0(i64 4, ptr %7) #14
  call void @llvm.lifetime.start.p0(i64 4, ptr %8) #14
  call void @llvm.lifetime.start.p0(i64 4, ptr %9) #14
  call void @llvm.lifetime.start.p0(i64 8, ptr %10) #14
  %12 = load i32, ptr %4, align 4, !tbaa !8
  %13 = call i32 @pmix_mca_base_var_group_get_internal(i32 noundef %12, ptr noundef %6, i1 noundef zeroext false)
  store i32 %13, ptr %9, align 4, !tbaa !8
  %14 = load i32, ptr %9, align 4, !tbaa !8
  %15 = icmp ne i32 0, %14
  br i1 %15, label %16, label %18

16:                                               ; preds = %2
  %17 = load i32, ptr %9, align 4, !tbaa !8
  store i32 %17, ptr %3, align 4
  store i32 1, ptr %11, align 4
  br label %60

18:                                               ; preds = %2
  %19 = load ptr, ptr %6, align 8, !tbaa !3
  %20 = getelementptr inbounds nuw %struct.pmix_mca_base_var_group_t, ptr %19, i32 0, i32 9
  %21 = call i64 @pmix_value_array_get_size(ptr noundef %20)
  %22 = trunc i64 %21 to i32
  store i32 %22, ptr %7, align 4, !tbaa !8
  %23 = load ptr, ptr %6, align 8, !tbaa !3
  %24 = getelementptr inbounds nuw %struct.pmix_mca_base_var_group_t, ptr %23, i32 0, i32 9
  %25 = getelementptr inbounds nuw %struct.pmix_value_array_t, ptr %24, i32 0, i32 1
  %26 = load ptr, ptr %25, align 8, !tbaa !65
  store ptr %26, ptr %10, align 8, !tbaa !66
  store i32 0, ptr %8, align 4, !tbaa !8
  br label %27

27:                                               ; preds = %42, %18
  %28 = load i32, ptr %8, align 4, !tbaa !8
  %29 = load i32, ptr %7, align 4, !tbaa !8
  %30 = icmp slt i32 %28, %29
  br i1 %30, label %31, label %45

31:                                               ; preds = %27
  %32 = load ptr, ptr %10, align 8, !tbaa !66
  %33 = load i32, ptr %8, align 4, !tbaa !8
  %34 = sext i32 %33 to i64
  %35 = getelementptr inbounds i32, ptr %32, i64 %34
  %36 = load i32, ptr %35, align 4, !tbaa !8
  %37 = load i32, ptr %5, align 4, !tbaa !8
  %38 = icmp eq i32 %36, %37
  br i1 %38, label %39, label %41

39:                                               ; preds = %31
  %40 = load i32, ptr %8, align 4, !tbaa !8
  store i32 %40, ptr %3, align 4
  store i32 1, ptr %11, align 4
  br label %60

41:                                               ; preds = %31
  br label %42

42:                                               ; preds = %41
  %43 = load i32, ptr %8, align 4, !tbaa !8
  %44 = add nsw i32 %43, 1
  store i32 %44, ptr %8, align 4, !tbaa !8
  br label %27, !llvm.loop !75

45:                                               ; preds = %27
  %46 = load ptr, ptr %6, align 8, !tbaa !3
  %47 = getelementptr inbounds nuw %struct.pmix_mca_base_var_group_t, ptr %46, i32 0, i32 9
  %48 = call i32 @pmix_value_array_append_item(ptr noundef %47, ptr noundef %5)
  store i32 %48, ptr %9, align 4, !tbaa !8
  %49 = icmp ne i32 0, %48
  br i1 %49, label %50, label %52

50:                                               ; preds = %45
  %51 = load i32, ptr %9, align 4, !tbaa !8
  store i32 %51, ptr %3, align 4
  store i32 1, ptr %11, align 4
  br label %60

52:                                               ; preds = %45
  %53 = load i32, ptr @pmix_mca_base_var_groups_timestamp, align 4, !tbaa !8
  %54 = add nsw i32 %53, 1
  store i32 %54, ptr @pmix_mca_base_var_groups_timestamp, align 4, !tbaa !8
  %55 = load ptr, ptr %6, align 8, !tbaa !3
  %56 = getelementptr inbounds nuw %struct.pmix_mca_base_var_group_t, ptr %55, i32 0, i32 9
  %57 = call i64 @pmix_value_array_get_size(ptr noundef %56)
  %58 = trunc i64 %57 to i32
  %59 = sub nsw i32 %58, 1
  store i32 %59, ptr %3, align 4
  store i32 1, ptr %11, align 4
  br label %60

60:                                               ; preds = %52, %50, %39, %16
  call void @llvm.lifetime.end.p0(i64 8, ptr %10) #14
  call void @llvm.lifetime.end.p0(i64 4, ptr %9) #14
  call void @llvm.lifetime.end.p0(i64 4, ptr %8) #14
  call void @llvm.lifetime.end.p0(i64 4, ptr %7) #14
  call void @llvm.lifetime.end.p0(i64 8, ptr %6) #14
  %61 = load i32, ptr %3, align 4
  ret i32 %61
}