; Function Attrs: nounwind uwtable
define i32 @pmix_mca_base_var_group_add_var(i32 noundef %0, i32 noundef %1) local_unnamed_addr #0 {
  %3 = alloca i32, align 4
  store i32 %1, ptr %3, align 4, !tbaa !3
  %4 = icmp sgt i32 %0, -1
  %5 = load i32, ptr getelementptr inbounds nuw (i8, ptr @pmix_mca_base_var_groups, i64 128), align 8
  %.not.i = icmp sgt i32 %5, %0
  %or.cond = select i1 %4, i1 %.not.i, i1 false
  br i1 %or.cond, label %pmix_pointer_array_get_item.exit.i, label %pmix_value_array_append_item.exit, !prof !50

pmix_pointer_array_get_item.exit.i:               ; preds = %2
  %6 = load ptr, ptr getelementptr inbounds nuw (i8, ptr @pmix_mca_base_var_groups, i64 152), align 8, !tbaa !41
  %7 = zext nneg i32 %0 to i64
  %8 = getelementptr inbounds nuw ptr, ptr %6, i64 %7
  %9 = load ptr, ptr %8, align 8, !tbaa !18
  %10 = icmp eq ptr %9, null
  br i1 %10, label %pmix_value_array_append_item.exit, label %11

11:                                               ; preds = %pmix_pointer_array_get_item.exit.i
  %12 = getelementptr inbounds nuw i8, ptr %9, i64 148
  %13 = load i8, ptr %12, align 4, !tbaa !46, !range !47, !noundef !48
  %14 = trunc nuw i8 %13 to i1
  br i1 %14, label %pmix_mca_base_var_group_get_internal.exit, label %pmix_value_array_append_item.exit

pmix_mca_base_var_group_get_internal.exit:        ; preds = %11
  %15 = getelementptr inbounds nuw i8, ptr %9, i64 344
  %16 = getelementptr i8, ptr %9, i64 480
  %.val14 = load i64, ptr %16, align 8, !tbaa !24
  %17 = trunc i64 %.val14 to i32
  %18 = getelementptr inbounds nuw i8, ptr %9, i64 464
  %19 = load ptr, ptr %18, align 8, !tbaa !51
  %20 = icmp sgt i32 %17, 0
  br i1 %20, label %.lr.ph.preheader, label %._crit_edge

.lr.ph.preheader:                                 ; preds = %pmix_mca_base_var_group_get_internal.exit
  %wide.trip.count = and i64 %.val14, 2147483647
  br label %.lr.ph

.lr.ph:                                           ; preds = %.lr.ph.preheader, %24
  %indvars.iv = phi i64 [ 0, %.lr.ph.preheader ], [ %indvars.iv.next, %24 ]
  %21 = getelementptr inbounds nuw i32, ptr %19, i64 %indvars.iv
  %22 = load i32, ptr %21, align 4, !tbaa !3
  %23 = icmp eq i32 %22, %1
  br i1 %23, label %pmix_value_array_append_item.exit.loopexit, label %24

24:                                               ; preds = %.lr.ph
  %indvars.iv.next = add nuw nsw i64 %indvars.iv, 1
  %exitcond.not = icmp eq i64 %indvars.iv.next, %wide.trip.count
  br i1 %exitcond.not, label %._crit_edge, label %.lr.ph, !llvm.loop !59

._crit_edge:                                      ; preds = %24, %pmix_mca_base_var_group_get_internal.exit
  %25 = add i64 %.val14, 1
  %26 = tail call i32 @pmix_value_array_set_size(ptr noundef nonnull %15, i64 noundef %25) #17
  %.not12.i.i = icmp eq i32 %26, 0
  br i1 %.not12.i.i, label %27, label %pmix_value_array_append_item.exit

27:                                               ; preds = %._crit_edge
  %28 = load ptr, ptr %18, align 8, !tbaa !25
  %29 = getelementptr inbounds nuw i8, ptr %9, i64 472
  %30 = load i64, ptr %29, align 8, !tbaa !21
  %31 = mul i64 %30, %.val14
  %32 = getelementptr inbounds nuw i8, ptr %28, i64 %31
  call void @llvm.memcpy.p0.p0.i64(ptr align 1 %32, ptr nonnull readonly align 4 %3, i64 %30, i1 false)
  %33 = load i32, ptr @pmix_mca_base_var_groups_timestamp, align 4, !tbaa !3
  %34 = add nsw i32 %33, 1
  store i32 %34, ptr @pmix_mca_base_var_groups_timestamp, align 4, !tbaa !3
  %.val = load i64, ptr %16, align 8, !tbaa !24
  %35 = trunc i64 %.val to i32
  %36 = add nsw i32 %35, -1
  br label %pmix_value_array_append_item.exit

pmix_value_array_append_item.exit.loopexit:       ; preds = %.lr.ph
  %37 = trunc nuw nsw i64 %indvars.iv to i32
  br label %pmix_value_array_append_item.exit

pmix_value_array_append_item.exit:                ; preds = %pmix_value_array_append_item.exit.loopexit, %pmix_pointer_array_get_item.exit.i, %11, %2, %._crit_edge, %27
  %.0 = phi i32 [ %36, %27 ], [ %26, %._crit_edge ], [ -46, %2 ], [ -46, %11 ], [ -46, %pmix_pointer_array_get_item.exit.i ], [ %37, %pmix_value_array_append_item.exit.loopexit ]
  ret i32 %.0
}